target datalayout = "e-m:e-p270:32:32-p271:32:32-p272:64:64-i64:64-i128:128-f80:128-n8:16:32:64-S128"
target triple = "x86_64-pc-linux-gnu"

%class.FunctionInvocation = type { ptr, i32, %"class.std::vector.13", i8, i8, ptr }
%"class.std::vector.13" = type { %"struct.std::_Vector_base.14" }
%"struct.std::_Vector_base.14" = type { %"struct.std::_Vector_base<const Expression *, std::allocator<const Expression *>>::_Vector_impl" }
%"struct.std::_Vector_base<const Expression *, std::allocator<const Expression *>>::_Vector_impl" = type { %"struct.std::_Vector_base<const Expression *, std::allocator<const Expression *>>::_Vector_impl_data" }
%"struct.std::_Vector_base<const Expression *, std::allocator<const Expression *>>::_Vector_impl_data" = type { ptr, ptr, ptr }
%"class.std::vector.31" = type { %"struct.std::_Vector_base.32" }
%"struct.std::_Vector_base.32" = type { %"struct.std::_Vector_base<unsigned int, std::allocator<unsigned int>>::_Vector_impl" }
%"struct.std::_Vector_base<unsigned int, std::allocator<unsigned int>>::_Vector_impl" = type { %"struct.std::_Vector_base<unsigned int, std::allocator<unsigned int>>::_Vector_impl_data" }
%"struct.std::_Vector_base<unsigned int, std::allocator<unsigned int>>::_Vector_impl_data" = type { ptr, ptr, ptr }
%class.Type = type { i32, ptr, i32, %"class.std::vector.31", %"class.std::vector.36", i32, i8, i8, i8, i8, i8, %"class.std::vector.41", %"class.std::vector.46" }
%"class.std::vector.36" = type { %"struct.std::_Vector_base.37" }
%"struct.std::_Vector_base.37" = type { %"struct.std::_Vector_base<const Type *, std::allocator<const Type *>>::_Vector_impl" }
%"struct.std::_Vector_base<const Type *, std::allocator<const Type *>>::_Vector_impl" = type { %"struct.std::_Vector_base<const Type *, std::allocator<const Type *>>::_Vector_impl_data" }
%"struct.std::_Vector_base<const Type *, std::allocator<const Type *>>::_Vector_impl_data" = type { ptr, ptr, ptr }
%"class.std::vector.41" = type { %"struct.std::_Vector_base.42" }
%"struct.std::_Vector_base.42" = type { %"struct.std::_Vector_base<CVQualifiers, std::allocator<CVQualifiers>>::_Vector_impl" }
%"struct.std::_Vector_base<CVQualifiers, std::allocator<CVQualifiers>>::_Vector_impl" = type { %"struct.std::_Vector_base<CVQualifiers, std::allocator<CVQualifiers>>::_Vector_impl_data" }
%"struct.std::_Vector_base<CVQualifiers, std::allocator<CVQualifiers>>::_Vector_impl_data" = type { ptr, ptr, ptr }
%"class.std::vector.46" = type { %"struct.std::_Vector_base.47" }
%"struct.std::_Vector_base.47" = type { %"struct.std::_Vector_base<int, std::allocator<int>>::_Vector_impl" }
%"struct.std::_Vector_base<int, std::allocator<int>>::_Vector_impl" = type { %"struct.std::_Vector_base<int, std::allocator<int>>::_Vector_impl_data" }
%"struct.std::_Vector_base<int, std::allocator<int>>::_Vector_impl_data" = type { ptr, ptr, ptr }

@_ZN5Error8r_error_E = external global i32, align 4

; Function Attrs: mustprogress nounwind uwtable
define linkonce_odr dso_local noundef i32 @_ZN5Error9get_errorEv() #6 comdat align 2 {
  %1 = load i32, ptr @_ZN5Error8r_error_E, align 4, !tbaa !60
  ret i32 %1
}

; Function Attrs: mustprogress nounwind uwtable
define dso_local noundef zeroext i1 @_ZN18FunctionInvocation20UnaryOpWorksForFloatE9eUnaryOps(i32 noundef %0) #6 align 2 {
  %2 = alloca i1, align 1
  %3 = alloca i32, align 4
  store i32 %0, ptr %3, align 4, !tbaa !85
  %4 = load i32, ptr %3, align 4, !tbaa !85
  switch i32 %4, label %6 [
    i32 0, label %5
    i32 1, label %5
    i32 2, label %5
  ]

5:                                                ; preds = %1, %1, %1
  store i1 true, ptr %2, align 1
  br label %7

6:                                                ; preds = %1
  store i1 false, ptr %2, align 1
  br label %7

7:                                                ; preds = %6, %5
  %8 = load i1, ptr %2, align 1
  ret i1 %8
}

; Function Attrs: mustprogress nounwind uwtable
define linkonce_odr dso_local noundef zeroext i1 @_ZNK4Type8is_floatEv(ptr noundef nonnull align 8 dereferenceable(136) %0) #6 comdat align 2 {
  %2 = alloca ptr, align 8
  store ptr %0, ptr %2, align 8, !tbaa !11
  %3 = load ptr, ptr %2, align 8
  %4 = getelementptr inbounds nuw %class.Type, ptr %3, i32 0, i32 0
  %5 = load i32, ptr %4, align 8, !tbaa !102
  %6 = icmp eq i32 %5, 0
  br i1 %6, label %7, label %11

7:                                                ; preds = %1
  %8 = getelementptr inbounds nuw %class.Type, ptr %3, i32 0, i32 2
  %9 = load i32, ptr %8, align 8, !tbaa !124
  %10 = icmp eq i32 %9, 10
  br label %11

11:                                               ; preds = %7, %1
  %12 = phi i1 [ false, %1 ], [ %10, %7 ]
  ret i1 %12
}

; Function Attrs: mustprogress uwtable
define dso_local noundef ptr @_ZN18FunctionInvocation17make_random_unaryER9CGContextPK4Type(ptr noundef nonnull align 8 dereferenceable(216) %0, ptr noundef %1) #4 align 2 {
  %3 = alloca ptr, align 8
  %4 = alloca ptr, align 8
  %5 = alloca ptr, align 8
  %6 = alloca i32, align 4
  %7 = alloca i32, align 4
  %8 = alloca ptr, align 8
  %9 = alloca ptr, align 8
  %10 = alloca ptr, align 8
  store ptr %0, ptr %4, align 8, !tbaa !8
  store ptr %1, ptr %5, align 8, !tbaa !11
  %11 = call noundef i32 @_ZN9DepthSpec19depth_guard_by_typeE5dTypei(i32 noundef 11, i32 noundef 0)
  %12 = icmp ne i32 %11, 0
  br i1 %12, label %13, label %14

13:                                               ; preds = %2
  store ptr null, ptr %3, align 8
  br label %65

14:                                               ; preds = %2
  call void @llvm.lifetime.start.p0(i64 4, ptr %6) #3
  br label %15

15:                                               ; preds = %25, %14
  %16 = call noundef ptr @_ZN13Probabilities15get_prob_filterE8ProbName(i32 noundef 52)
  %17 = call noundef i32 @_Z8rnd_uptojPK6FilterPKNSt7__cxx1112basic_stringIcSt11char_traitsIcESaIcEEE(i32 noundef 4, ptr noundef %16, ptr noundef null)
  store i32 %17, ptr %6, align 4, !tbaa !85
  br label %18

18:                                               ; preds = %15
  %19 = load ptr, ptr %5, align 8, !tbaa !11
  %20 = call noundef zeroext i1 @_ZNK4Type8is_floatEv(ptr noundef nonnull align 8 dereferenceable(136) %19)
  br i1 %20, label %21, label %25

21:                                               ; preds = %18
  %22 = load i32, ptr %6, align 4, !tbaa !85
  %23 = call noundef zeroext i1 @_ZN18FunctionInvocation20UnaryOpWorksForFloatE9eUnaryOps(i32 noundef %22)
  %24 = xor i1 %23, true
  br label %25

25:                                               ; preds = %21, %18
  %26 = phi i1 [ false, %18 ], [ %24, %21 ]
  br i1 %26, label %15, label %27, !llvm.loop !87

27:                                               ; preds = %25
  %28 = call noundef i32 @_ZN5Error9get_errorEv()
  %29 = icmp ne i32 %28, 0
  br i1 %29, label %30, label %31

30:                                               ; preds = %27
  store ptr null, ptr %3, align 8
  store i32 1, ptr %7, align 4
  br label %64

31:                                               ; preds = %27
  call void @llvm.lifetime.start.p0(i64 8, ptr %8) #3
  store ptr null, ptr %8, align 8, !tbaa !89
  %32 = load ptr, ptr %5, align 8, !tbaa !11
  %33 = load i32, ptr %6, align 4, !tbaa !85
  %34 = call noundef ptr @_ZN11SafeOpFlags17make_random_unaryEPK4TypeS2_9eUnaryOps(ptr noundef %32, ptr noundef null, i32 noundef %33)
  store ptr %34, ptr %8, align 8, !tbaa !89
  %35 = call noundef i32 @_ZN5Error9get_errorEv()
  %36 = icmp ne i32 %35, 0
  br i1 %36, label %37, label %38

37:                                               ; preds = %31
  store ptr null, ptr %3, align 8
  store i32 1, ptr %7, align 4
  br label %63

38:                                               ; preds = %31
  %39 = load ptr, ptr %8, align 8, !tbaa !89
  %40 = call noundef ptr @_ZN11SafeOpFlags12get_lhs_typeEv(ptr noundef nonnull align 4 dereferenceable(8) %39)
  store ptr %40, ptr %5, align 8, !tbaa !11
  call void @llvm.lifetime.start.p0(i64 8, ptr %9) #3
  %41 = load ptr, ptr %4, align 8, !tbaa !8
  %42 = load i32, ptr %6, align 4, !tbaa !85
  %43 = load ptr, ptr %8, align 8, !tbaa !89
  %44 = call noundef ptr @_ZN23FunctionInvocationUnary29CreateFunctionInvocationUnaryER9CGContext9eUnaryOpsP11SafeOpFlags(ptr noundef nonnull align 8 dereferenceable(216) %41, i32 noundef %42, ptr noundef %43)
  store ptr %44, ptr %9, align 8, !tbaa !15
  call void @llvm.lifetime.start.p0(i64 8, ptr %10) #3
  %45 = load ptr, ptr %4, align 8, !tbaa !8
  %46 = load ptr, ptr %5, align 8, !tbaa !11
  %47 = call noundef ptr @_ZN10Expression11make_randomER9CGContextPK4TypePK12CVQualifiersbb9eTermType(ptr noundef nonnull align 8 dereferenceable(216) %45, ptr noundef %46, ptr noundef null, i1 noundef zeroext false, i1 noundef zeroext false, i32 noundef 5)
  store ptr %47, ptr %10, align 8, !tbaa !90
  %48 = call noundef i32 @_ZN5Error9get_errorEv()
  %49 = icmp ne i32 %48, 0
  br i1 %49, label %50, label %58

50:                                               ; preds = %38
  %51 = load ptr, ptr %9, align 8, !tbaa !15
  %52 = icmp eq ptr %51, null
  br i1 %52, label %57, label %53

53:                                               ; preds = %50
  %54 = load ptr, ptr %51, align 8, !tbaa !91
  %55 = getelementptr inbounds ptr, ptr %54, i64 1
  %56 = load ptr, ptr %55, align 8
  call void %56(ptr noundef nonnull align 8 dereferenceable(56) %51) #3
  br label %57

57:                                               ; preds = %53, %50
  store ptr null, ptr %3, align 8
  store i32 1, ptr %7, align 4
  br label %62

58:                                               ; preds = %38
  %59 = load ptr, ptr %9, align 8, !tbaa !15
  %60 = getelementptr inbounds nuw %class.FunctionInvocation, ptr %59, i32 0, i32 2
  call void @_ZNSt6vectorIPK10ExpressionSaIS2_EE9push_backERKS2_(ptr noundef nonnull align 8 dereferenceable(24) %60, ptr noundef nonnull align 8 dereferenceable(8) %10)
  %61 = load ptr, ptr %9, align 8, !tbaa !15
  store ptr %61, ptr %3, align 8
  store i32 1, ptr %7, align 4
  br label %62

62:                                               ; preds = %58, %57
  call void @llvm.lifetime.end.p0(i64 8, ptr %10) #3
  call void @llvm.lifetime.end.p0(i64 8, ptr %9) #3
  br label %63

63:                                               ; preds = %62, %37
  call void @llvm.lifetime.end.p0(i64 8, ptr %8) #3
  br label %64

64:                                               ; preds = %63, %30
  call void @llvm.lifetime.end.p0(i64 4, ptr %6) #3
  br label %65

65:                                               ; preds = %64, %13
  %66 = load ptr, ptr %3, align 8
  ret ptr %66
}