; Function Attrs: mustprogress uwtable
define dso_local noundef ptr @_ZN18FunctionInvocation17make_random_unaryER9CGContextPK4Type(ptr noundef nonnull align 8 dereferenceable(216) %0, ptr noundef %1) local_unnamed_addr #3 align 2 {
  %3 = alloca ptr, align 8
  %4 = tail call noundef i32 @_ZN9DepthSpec19depth_guard_by_typeE5dTypei(i32 noundef 11, i32 noundef 0)
  %.not = icmp eq i32 %4, 0
  br i1 %.not, label %.preheader, label %31

.preheader:                                       ; preds = %2
  %5 = getelementptr inbounds nuw i8, ptr %1, i64 16
  br label %6

6:                                                ; preds = %.preheader, %6
  %7 = tail call noundef ptr @_ZN13Probabilities15get_prob_filterE8ProbName(i32 noundef 52)
  %8 = tail call noundef i32 @_Z8rnd_uptojPK6FilterPKNSt7__cxx1112basic_stringIcSt11char_traitsIcESaIcEEE(i32 noundef 4, ptr noundef %7, ptr noundef null)
  %9 = load i32, ptr %1, align 8, !tbaa !73
  %10 = icmp ne i32 %9, 0
  %11 = load i32, ptr %5, align 8
  %12 = icmp ne i32 %11, 10
  %.not20 = select i1 %10, i1 true, i1 %12
  %switch.i = icmp ult i32 %8, 3
  %or.cond = or i1 %switch.i, %.not20
  br i1 %or.cond, label %.critedge, label %6, !llvm.loop !96

.critedge:                                        ; preds = %6
  %13 = load i32, ptr @_ZN5Error8r_error_E, align 4, !tbaa !98
  %.not14 = icmp eq i32 %13, 0
  br i1 %.not14, label %14, label %31

14:                                               ; preds = %.critedge
  %15 = tail call noundef ptr @_ZN11SafeOpFlags17make_random_unaryEPK4TypeS2_9eUnaryOps(ptr noundef nonnull %1, ptr noundef null, i32 noundef %8)
  %16 = load i32, ptr @_ZN5Error8r_error_E, align 4, !tbaa !98
  %.not15 = icmp eq i32 %16, 0
  br i1 %.not15, label %17, label %31

17:                                               ; preds = %14
  %18 = tail call noundef ptr @_ZN11SafeOpFlags12get_lhs_typeEv(ptr noundef nonnull align 4 dereferenceable(8) %15)
  %19 = tail call noundef ptr @_ZN23FunctionInvocationUnary29CreateFunctionInvocationUnaryER9CGContext9eUnaryOpsP11SafeOpFlags(ptr noundef nonnull align 8 dereferenceable(216) %0, i32 noundef %8, ptr noundef nonnull %15)
  call void @llvm.lifetime.start.p0(i64 8, ptr nonnull %3) #26
  %20 = tail call noundef ptr @_ZN10Expression11make_randomER9CGContextPK4TypePK12CVQualifiersbb9eTermType(ptr noundef nonnull align 8 dereferenceable(216) %0, ptr noundef %18, ptr noundef null, i1 noundef zeroext false, i1 noundef zeroext false, i32 noundef 5)
  store ptr %20, ptr %3, align 8, !tbaa !99
  %21 = load i32, ptr @_ZN5Error8r_error_E, align 4, !tbaa !98
  %.not16 = icmp eq i32 %21, 0
  br i1 %.not16, label %28, label %22

22:                                               ; preds = %17
  %23 = icmp eq ptr %19, null
  br i1 %23, label %30, label %24

24:                                               ; preds = %22
  %25 = load ptr, ptr %19, align 8, !tbaa !100
  %26 = getelementptr inbounds nuw i8, ptr %25, i64 8
  %27 = load ptr, ptr %26, align 8
  tail call void %27(ptr noundef nonnull align 8 dereferenceable(56) %19) #26
  br label %30

28:                                               ; preds = %17
  %29 = getelementptr inbounds nuw i8, ptr %19, i64 16
  call void @_ZNSt6vectorIPK10ExpressionSaIS2_EE9push_backERKS2_(ptr noundef nonnull align 8 dereferenceable(24) %29, ptr noundef nonnull align 8 dereferenceable(8) %3)
  br label %30

30:                                               ; preds = %22, %24, %28
  %.3 = phi ptr [ %19, %28 ], [ null, %24 ], [ null, %22 ]
  call void @llvm.lifetime.end.p0(i64 8, ptr nonnull %3) #26
  br label %31

31:                                               ; preds = %.critedge, %14, %30, %2
  %.0 = phi ptr [ null, %2 ], [ null, %.critedge ], [ %.3, %30 ], [ null, %14 ]
  ret ptr %.0
}